; Function Attrs: mustprogress uwtable
define void @_ZN6icu_7522UIterCollationIterator21backwardNumCodePointsEiR10UErrorCode(ptr nocapture noundef nonnull readonly align 8 dereferenceable(400) %this, i32 noundef %num, ptr nocapture nonnull readnone align 4 %0) unnamed_addr #1 align 2 {
entry:
  %iter = getelementptr inbounds i8, ptr %this, i64 392
  %cmp3 = icmp sgt i32 %num, 0
  br i1 %cmp3, label %land.rhs, label %while.end

land.rhs:                                         ; preds = %entry, %land.rhs
  %num.addr.04 = phi i32 [ %dec, %land.rhs ], [ %num, %entry ]
  %1 = load ptr, ptr %iter, align 8
  %call = tail call i32 @uiter_previous32_75(ptr noundef %1)
  %cmp2 = icmp sgt i32 %call, -1
  %dec = add nsw i32 %num.addr.04, -1
  %cmp = icmp sgt i32 %num.addr.04, 1
  %or.cond = select i1 %cmp2, i1 %cmp, i1 false
  br i1 %or.cond, label %land.rhs, label %while.end, !llvm.loop !6

while.end:                                        ; preds = %land.rhs, %entry
  ret void
}